target datalayout = "e-m:e-p270:32:32-p271:32:32-p272:64:64-i64:64-i128:128-f80:128-n8:16:32:64-S128"
target triple = "x86_64-pc-linux-gnu"

; Function Attrs: nounwind uwtable
define dso_local ptr @lookup_commit_reference_gently(ptr noundef %0, ptr noundef %1, i32 noundef %2) #0 {
  %4 = alloca ptr, align 8
  %5 = alloca ptr, align 8
  %6 = alloca ptr, align 8
  %7 = alloca i32, align 4
  %8 = alloca ptr, align 8
  %9 = alloca i32, align 4
  store ptr %0, ptr %5, align 8, !tbaa !4
  store ptr %1, ptr %6, align 8, !tbaa !9
  store i32 %2, ptr %7, align 4, !tbaa !11
  call void @llvm.lifetime.start.p0(i64 8, ptr %8) #11
  %10 = load ptr, ptr %5, align 8, !tbaa !4
  %11 = load ptr, ptr %5, align 8, !tbaa !4
  %12 = load ptr, ptr %6, align 8, !tbaa !9
  %13 = call ptr @parse_object(ptr noundef %11, ptr noundef %12)
  %14 = call ptr @deref_tag(ptr noundef %10, ptr noundef %13, ptr noundef null, i32 noundef 0)
  store ptr %14, ptr %8, align 8, !tbaa !13
  %15 = load ptr, ptr %8, align 8, !tbaa !13
  %16 = icmp ne ptr %15, null
  br i1 %16, label %18, label %17

17:                                               ; preds = %3
  store ptr null, ptr %4, align 8
  store i32 1, ptr %9, align 4
  br label %22

18:                                               ; preds = %3
  %19 = load ptr, ptr %8, align 8, !tbaa !13
  %20 = load i32, ptr %7, align 4, !tbaa !11
  %21 = call ptr @object_as_type(ptr noundef %19, i32 noundef 1, i32 noundef %20)
  store ptr %21, ptr %4, align 8
  store i32 1, ptr %9, align 4
  br label %22

22:                                               ; preds = %18, %17
  call void @llvm.lifetime.end.p0(i64 8, ptr %8) #11
  %23 = load ptr, ptr %4, align 8
  ret ptr %23
}