; Function Attrs: nounwind uwtable
define dso_local ptr @lookup_commit_reference_gently(ptr noundef %0, ptr noundef %1, i32 noundef %2) local_unnamed_addr #0 {
  %4 = tail call ptr @parse_object(ptr noundef %0, ptr noundef %1) #24
  %5 = tail call ptr @deref_tag(ptr noundef %0, ptr noundef %4, ptr noundef null, i32 noundef 0) #24
  %.not = icmp eq ptr %5, null
  br i1 %.not, label %8, label %6

6:                                                ; preds = %3
  %7 = tail call ptr @object_as_type(ptr noundef nonnull %5, i32 noundef 1, i32 noundef %2) #24
  br label %8

8:                                                ; preds = %3, %6
  %.0 = phi ptr [ %7, %6 ], [ null, %3 ]
  ret ptr %.0
}